target datalayout = "e-m:e-p270:32:32-p271:32:32-p272:64:64-i64:64-i128:128-f80:128-n8:16:32:64-S128"
target triple = "x86_64-pc-linux-gnu"

%struct.OnigEncodingTypeST = type { ptr, ptr, i32, i32, ptr, ptr, ptr, ptr, ptr, ptr, ptr, ptr, ptr, ptr, ptr, ptr, ptr, ptr, ptr, i32, i32, i32 }

; Function Attrs: nounwind uwtable
define internal i32 @scan_octal_number(ptr noundef %0, ptr noundef %1, i32 noundef %2, i32 noundef %3, ptr noundef %4, ptr noundef %5) #0 {
  %7 = alloca i32, align 4
  %8 = alloca ptr, align 8
  %9 = alloca ptr, align 8
  %10 = alloca i32, align 4
  %11 = alloca i32, align 4
  %12 = alloca ptr, align 8
  %13 = alloca ptr, align 8
  %14 = alloca i32, align 4
  %15 = alloca i32, align 4
  %16 = alloca i32, align 4
  %17 = alloca i32, align 4
  %18 = alloca ptr, align 8
  %19 = alloca ptr, align 8
  %20 = alloca i32, align 4
  store ptr %0, ptr %8, align 8, !tbaa !181
  store ptr %1, ptr %9, align 8, !tbaa !4
  store i32 %2, ptr %10, align 4, !tbaa !10
  store i32 %3, ptr %11, align 4, !tbaa !10
  store ptr %4, ptr %12, align 8, !tbaa !32
  store ptr %5, ptr %13, align 8, !tbaa !62
  call void @llvm.lifetime.start.p0(i64 4, ptr %14) #8
  call void @llvm.lifetime.start.p0(i64 4, ptr %15) #8
  call void @llvm.lifetime.start.p0(i64 4, ptr %16) #8
  call void @llvm.lifetime.start.p0(i64 4, ptr %17) #8
  call void @llvm.lifetime.start.p0(i64 8, ptr %18) #8
  call void @llvm.lifetime.start.p0(i64 8, ptr %19) #8
  %21 = load ptr, ptr %8, align 8, !tbaa !181
  %22 = load ptr, ptr %21, align 8, !tbaa !4
  store ptr %22, ptr %18, align 8, !tbaa !4
  store i32 0, ptr %14, align 4, !tbaa !10
  store i32 0, ptr %17, align 4, !tbaa !10
  br label %23

23:                                               ; preds = %86, %6
  %24 = load ptr, ptr %18, align 8, !tbaa !4
  %25 = load ptr, ptr %9, align 8, !tbaa !4
  %26 = icmp ult ptr %24, %25
  br i1 %26, label %27, label %28

27:                                               ; preds = %23
  br i1 false, label %33, label %29

28:                                               ; preds = %23
  br i1 true, label %33, label %29

29:                                               ; preds = %28, %27
  %30 = load i32, ptr %17, align 4, !tbaa !10
  %31 = load i32, ptr %11, align 4, !tbaa !10
  %32 = icmp slt i32 %30, %31
  br label %33

33:                                               ; preds = %29, %28, %27
  %34 = phi i1 [ false, %28 ], [ false, %27 ], [ %32, %29 ]
  br i1 %34, label %35, label %87

35:                                               ; preds = %33
  br label %36

36:                                               ; preds = %35
  %37 = load ptr, ptr %12, align 8, !tbaa !32
  %38 = getelementptr inbounds nuw %struct.OnigEncodingTypeST, ptr %37, i32 0, i32 5
  %39 = load ptr, ptr %38, align 8, !tbaa !92
  %40 = load ptr, ptr %18, align 8, !tbaa !4
  %41 = load ptr, ptr %9, align 8, !tbaa !4
  %42 = call i32 %39(ptr noundef %40, ptr noundef %41)
  store i32 %42, ptr %15, align 4, !tbaa !10
  %43 = load ptr, ptr %18, align 8, !tbaa !4
  store ptr %43, ptr %19, align 8, !tbaa !4
  %44 = load ptr, ptr %12, align 8, !tbaa !32
  %45 = getelementptr inbounds nuw %struct.OnigEncodingTypeST, ptr %44, i32 0, i32 0
  %46 = load ptr, ptr %45, align 8, !tbaa !94
  %47 = load ptr, ptr %18, align 8, !tbaa !4
  %48 = call i32 %46(ptr noundef %47)
  %49 = load ptr, ptr %18, align 8, !tbaa !4
  %50 = sext i32 %48 to i64
  %51 = getelementptr inbounds i8, ptr %49, i64 %50
  store ptr %51, ptr %18, align 8, !tbaa !4
  br label %52

52:                                               ; preds = %36
  br label %53

53:                                               ; preds = %52
  %54 = load i32, ptr %15, align 4, !tbaa !10
  %55 = icmp ult i32 %54, 128
  br i1 %55, label %56, label %84

56:                                               ; preds = %53
  %57 = load ptr, ptr %12, align 8, !tbaa !32
  %58 = getelementptr inbounds nuw %struct.OnigEncodingTypeST, ptr %57, i32 0, i32 12
  %59 = load ptr, ptr %58, align 8, !tbaa !198
  %60 = load i32, ptr %15, align 4, !tbaa !10
  %61 = call i32 %59(i32 noundef %60, i32 noundef 4)
  %62 = icmp ne i32 %61, 0
  br i1 %62, label %63, label %84

63:                                               ; preds = %56
  %64 = load i32, ptr %15, align 4, !tbaa !10
  %65 = icmp ult i32 %64, 56
  br i1 %65, label %66, label %84

66:                                               ; preds = %63
  %67 = load i32, ptr %17, align 4, !tbaa !10
  %68 = add nsw i32 %67, 1
  store i32 %68, ptr %17, align 4, !tbaa !10
  %69 = load i32, ptr %15, align 4, !tbaa !10
  %70 = sub i32 %69, 48
  store i32 %70, ptr %16, align 4, !tbaa !10
  %71 = load i32, ptr %16, align 4, !tbaa !10
  %72 = sub i32 -1, %71
  %73 = zext i32 %72 to i64
  %74 = udiv i64 %73, 8
  %75 = load i32, ptr %14, align 4, !tbaa !10
  %76 = zext i32 %75 to i64
  %77 = icmp ult i64 %74, %76
  br i1 %77, label %78, label %79

78:                                               ; preds = %66
  store i32 -200, ptr %7, align 4
  store i32 1, ptr %20, align 4
  br label %97

79:                                               ; preds = %66
  %80 = load i32, ptr %14, align 4, !tbaa !10
  %81 = shl i32 %80, 3
  %82 = load i32, ptr %16, align 4, !tbaa !10
  %83 = add i32 %81, %82
  store i32 %83, ptr %14, align 4, !tbaa !10
  br label %86

84:                                               ; preds = %63, %56, %53
  %85 = load ptr, ptr %19, align 8, !tbaa !4
  store ptr %85, ptr %18, align 8, !tbaa !4
  br label %87

86:                                               ; preds = %79
  br label %23, !llvm.loop !210

87:                                               ; preds = %84, %33
  %88 = load i32, ptr %17, align 4, !tbaa !10
  %89 = load i32, ptr %10, align 4, !tbaa !10
  %90 = icmp slt i32 %88, %89
  br i1 %90, label %91, label %92

91:                                               ; preds = %87
  store i32 -400, ptr %7, align 4
  store i32 1, ptr %20, align 4
  br label %97

92:                                               ; preds = %87
  %93 = load i32, ptr %14, align 4, !tbaa !10
  %94 = load ptr, ptr %13, align 8, !tbaa !62
  store i32 %93, ptr %94, align 4, !tbaa !10
  %95 = load ptr, ptr %18, align 8, !tbaa !4
  %96 = load ptr, ptr %8, align 8, !tbaa !181
  store ptr %95, ptr %96, align 8, !tbaa !4
  store i32 0, ptr %7, align 4
  store i32 1, ptr %20, align 4
  br label %97

97:                                               ; preds = %92, %91, %78
  call void @llvm.lifetime.end.p0(i64 8, ptr %19) #8
  call void @llvm.lifetime.end.p0(i64 8, ptr %18) #8
  call void @llvm.lifetime.end.p0(i64 4, ptr %17) #8
  call void @llvm.lifetime.end.p0(i64 4, ptr %16) #8
  call void @llvm.lifetime.end.p0(i64 4, ptr %15) #8
  call void @llvm.lifetime.end.p0(i64 4, ptr %14) #8
  %98 = load i32, ptr %7, align 4
  ret i32 %98
}